target datalayout = "e-m:e-p270:32:32-p271:32:32-p272:64:64-i64:64-i128:128-f80:128-n8:16:32:64-S128"
target triple = "x86_64-unknown-linux-gnu"

%struct.QTailQLink = type { ptr, ptr }
%struct.UfsRequest = type { ptr, i32, i32, %struct.UtpTransferReqDesc, %struct.UtpUpiuReq, %struct.UtpUpiuRsp, ptr, i32 }
%struct.UtpTransferReqDesc = type { %struct.RequestDescHeader, i32, i32, i16, i16, i16, i16 }
%struct.RequestDescHeader = type { i32, i32, i32, i32 }
%struct.UtpUpiuReq = type { %struct.UtpUpiuHeader, %union.anon }
%struct.UtpUpiuHeader = type { i8, i8, i8, i8, i8, i8, i8, i8, i8, i8, i16 }
%union.anon = type { %struct.UtpUpiuQuery }
%struct.UtpUpiuQuery = type { i8, i8, i8, i8, i16, i16, i32, [2 x i32], [256 x i8] }
%struct.UtpUpiuRsp = type { %struct.UtpUpiuHeader, %union.anon.0 }
%union.anon.0 = type { %struct.UtpUpiuQuery }
%struct.UtpUpiuCmd = type { i32, [16 x i8] }
%struct.UtpCmdRsp = type { i32, [4 x i32], i16, [18 x i8] }
%struct.SCSIRequest = type { ptr, ptr, ptr, i32, i32, i32, i16, i16, ptr, i64, %struct.SCSICommand, %struct.NotifierList, [252 x i8], i32, i8, i8, i8, i8, ptr, ptr, %union.anon.7 }
%struct.SCSICommand = type { [16 x i8], i32, i64, i64, i32 }
%struct.NotifierList = type { %struct.anon }
%struct.anon = type { ptr }
%union.anon.7 = type { %struct.QTailQLink }

@.str.3 = private unnamed_addr constant [20 x i8] c"../qemu/hw/ufs/lu.c\00", align 1
@.str.4 = private unnamed_addr constant [28 x i8] c"sense_len <= SCSI_SENSE_LEN\00", align 1
@__PRETTY_FUNCTION__.ufs_build_upiu_sense_data = private unnamed_addr constant [66 x i8] c"void ufs_build_upiu_sense_data(UfsRequest *, uint8_t *, uint32_t)\00", align 1

; Function Attrs: nounwind sspstrong uwtable
define internal zeroext i16 @cpu_to_be16(i16 noundef zeroext %v) #0 {
entry:
  %v.addr = alloca i16, align 2
  store i16 %v, ptr %v.addr, align 2
  %0 = load i16, ptr %v.addr, align 2
  %1 = call i16 @llvm.bswap.i16(i16 %0)
  ret i16 %1
}

; Function Attrs: nounwind sspstrong uwtable
define internal void @ufs_build_upiu_sense_data(ptr noundef %req, ptr noundef %sense, i32 noundef %sense_len) #0 {
entry:
  %req.addr = alloca ptr, align 8
  %sense.addr = alloca ptr, align 8
  %sense_len.addr = alloca i32, align 4
  store ptr %req, ptr %req.addr, align 8
  store ptr %sense, ptr %sense.addr, align 8
  store i32 %sense_len, ptr %sense_len.addr, align 4
  %0 = load i32, ptr %sense_len.addr, align 4
  %conv = trunc i32 %0 to i16
  %call = call zeroext i16 @cpu_to_be16(i16 noundef zeroext %conv)
  %1 = load ptr, ptr %req.addr, align 8
  %rsp_upiu = getelementptr inbounds %struct.UfsRequest, ptr %1, i32 0, i32 5
  %2 = getelementptr inbounds %struct.UtpUpiuRsp, ptr %rsp_upiu, i32 0, i32 1
  %sense_data_len = getelementptr inbounds %struct.UtpCmdRsp, ptr %2, i32 0, i32 2
  store i16 %call, ptr %sense_data_len, align 4
  %3 = load i32, ptr %sense_len.addr, align 4
  %cmp = icmp ule i32 %3, 18
  br i1 %cmp, label %if.then, label %if.else

if.then:                                          ; preds = %entry
  br label %if.end

if.else:                                          ; preds = %entry
  call void @__assert_fail(ptr noundef @.str.4, ptr noundef @.str.3, i32 noundef 28, ptr noundef @__PRETTY_FUNCTION__.ufs_build_upiu_sense_data) #6
  unreachable

if.end:                                           ; preds = %if.then
  %4 = load ptr, ptr %req.addr, align 8
  %rsp_upiu2 = getelementptr inbounds %struct.UfsRequest, ptr %4, i32 0, i32 5
  %5 = getelementptr inbounds %struct.UtpUpiuRsp, ptr %rsp_upiu2, i32 0, i32 1
  %sense_data = getelementptr inbounds %struct.UtpCmdRsp, ptr %5, i32 0, i32 3
  %arraydecay = getelementptr inbounds [18 x i8], ptr %sense_data, i64 0, i64 0
  %6 = load ptr, ptr %sense.addr, align 8
  %7 = load i32, ptr %sense_len.addr, align 4
  %conv3 = zext i32 %7 to i64
  call void @llvm.memcpy.p0.p0.i64(ptr align 2 %arraydecay, ptr align 1 %6, i64 %conv3, i1 false)
  ret void
}

; Function Attrs: nounwind sspstrong uwtable
define internal i32 @cpu_to_be32(i32 noundef %v) #0 {
entry:
  %v.addr = alloca i32, align 4
  store i32 %v, ptr %v.addr, align 4
  %0 = load i32, ptr %v.addr, align 4
  %1 = call i32 @llvm.bswap.i32(i32 %0)
  ret i32 %1
}

; Function Attrs: nounwind sspstrong uwtable
define internal i32 @be32_to_cpu(i32 noundef %v) #0 {
entry:
  %v.addr = alloca i32, align 4
  store i32 %v, ptr %v.addr, align 4
  %0 = load i32, ptr %v.addr, align 4
  %1 = call i32 @llvm.bswap.i32(i32 %0)
  ret i32 %1
}

; Function Attrs: nounwind sspstrong uwtable
define internal void @ufs_build_scsi_response_upiu(ptr noundef %req, ptr noundef %sense, i32 noundef %sense_len, i32 noundef %transfered_len, i16 noundef signext %status) #0 {
entry:
  %req.addr = alloca ptr, align 8
  %sense.addr = alloca ptr, align 8
  %sense_len.addr = alloca i32, align 4
  %transfered_len.addr = alloca i32, align 4
  %status.addr = alloca i16, align 2
  %expected_len = alloca i32, align 4
  %flags = alloca i8, align 1
  %response = alloca i8, align 1
  %data_segment_length = alloca i16, align 2
  store ptr %req, ptr %req.addr, align 8
  store ptr %sense, ptr %sense.addr, align 8
  store i32 %sense_len, ptr %sense_len.addr, align 4
  store i32 %transfered_len, ptr %transfered_len.addr, align 4
  store i16 %status, ptr %status.addr, align 2
  %0 = load ptr, ptr %req.addr, align 8
  %req_upiu = getelementptr inbounds %struct.UfsRequest, ptr %0, i32 0, i32 4
  %1 = getelementptr inbounds %struct.UtpUpiuReq, ptr %req_upiu, i32 0, i32 1
  %exp_data_transfer_len = getelementptr inbounds %struct.UtpUpiuCmd, ptr %1, i32 0, i32 0
  %2 = load i32, ptr %exp_data_transfer_len, align 4
  %call = call i32 @be32_to_cpu(i32 noundef %2)
  store i32 %call, ptr %expected_len, align 4
  store i8 0, ptr %flags, align 1
  store i8 0, ptr %response, align 1
  %3 = load i32, ptr %expected_len, align 4
  %4 = load i32, ptr %transfered_len.addr, align 4
  %cmp = icmp ugt i32 %3, %4
  br i1 %cmp, label %if.then, label %if.else

if.then:                                          ; preds = %entry
  %5 = load i32, ptr %expected_len, align 4
  %6 = load i32, ptr %transfered_len.addr, align 4
  %sub = sub i32 %5, %6
  %call1 = call i32 @cpu_to_be32(i32 noundef %sub)
  %7 = load ptr, ptr %req.addr, align 8
  %rsp_upiu = getelementptr inbounds %struct.UfsRequest, ptr %7, i32 0, i32 5
  %8 = getelementptr inbounds %struct.UtpUpiuRsp, ptr %rsp_upiu, i32 0, i32 1
  %residual_transfer_count = getelementptr inbounds %struct.UtpCmdRsp, ptr %8, i32 0, i32 0
  store i32 %call1, ptr %residual_transfer_count, align 4
  %9 = load i8, ptr %flags, align 1
  %conv = zext i8 %9 to i32
  %or = or i32 %conv, 32
  %conv2 = trunc i32 %or to i8
  store i8 %conv2, ptr %flags, align 1
  br label %if.end13

if.else:                                          ; preds = %entry
  %10 = load i32, ptr %expected_len, align 4
  %11 = load i32, ptr %transfered_len.addr, align 4
  %cmp3 = icmp ult i32 %10, %11
  br i1 %cmp3, label %if.then5, label %if.end

if.then5:                                         ; preds = %if.else
  %12 = load i32, ptr %transfered_len.addr, align 4
  %13 = load i32, ptr %expected_len, align 4
  %sub6 = sub i32 %12, %13
  %call7 = call i32 @cpu_to_be32(i32 noundef %sub6)
  %14 = load ptr, ptr %req.addr, align 8
  %rsp_upiu8 = getelementptr inbounds %struct.UfsRequest, ptr %14, i32 0, i32 5
  %15 = getelementptr inbounds %struct.UtpUpiuRsp, ptr %rsp_upiu8, i32 0, i32 1
  %residual_transfer_count9 = getelementptr inbounds %struct.UtpCmdRsp, ptr %15, i32 0, i32 0
  store i32 %call7, ptr %residual_transfer_count9, align 4
  %16 = load i8, ptr %flags, align 1
  %conv10 = zext i8 %16 to i32
  %or11 = or i32 %conv10, 64
  %conv12 = trunc i32 %or11 to i8
  store i8 %conv12, ptr %flags, align 1
  br label %if.end

if.end:                                           ; preds = %if.then5, %if.else
  br label %if.end13

if.end13:                                         ; preds = %if.end, %if.then
  %17 = load i16, ptr %status.addr, align 2
  %conv14 = sext i16 %17 to i32
  %cmp15 = icmp ne i32 %conv14, 0
  br i1 %cmp15, label %if.then17, label %if.end18

if.then17:                                        ; preds = %if.end13
  %18 = load ptr, ptr %req.addr, align 8
  %19 = load ptr, ptr %sense.addr, align 8
  %20 = load i32, ptr %sense_len.addr, align 4
  call void @ufs_build_upiu_sense_data(ptr noundef %18, ptr noundef %19, i32 noundef %20)
  store i8 1, ptr %response, align 1
  br label %if.end18

if.end18:                                         ; preds = %if.then17, %if.end13
  %21 = load i32, ptr %sense_len.addr, align 4
  %conv19 = zext i32 %21 to i64
  %add = add i64 %conv19, 2
  %conv20 = trunc i64 %add to i16
  %call21 = call zeroext i16 @cpu_to_be16(i16 noundef zeroext %conv20)
  store i16 %call21, ptr %data_segment_length, align 2
  %22 = load ptr, ptr %req.addr, align 8
  %23 = load i8, ptr %flags, align 1
  %24 = load i8, ptr %response, align 1
  %25 = load i16, ptr %status.addr, align 2
  %conv22 = trunc i16 %25 to i8
  %26 = load i16, ptr %data_segment_length, align 2
  call void @ufs_build_upiu_header(ptr noundef %22, i8 noundef zeroext 33, i8 noundef zeroext %23, i8 noundef zeroext %24, i8 noundef zeroext %conv22, i16 noundef zeroext %26)
  ret void
}

; Function Attrs: nounwind sspstrong uwtable
define internal void @ufs_scsi_command_complete(ptr noundef %scsi_req, i64 noundef %resid) #0 {
entry:
  %scsi_req.addr = alloca ptr, align 8
  %resid.addr = alloca i64, align 8
  %req = alloca ptr, align 8
  %status = alloca i16, align 2
  %transfered_len = alloca i32, align 4
  store ptr %scsi_req, ptr %scsi_req.addr, align 8
  store i64 %resid, ptr %resid.addr, align 8
  %0 = load ptr, ptr %scsi_req.addr, align 8
  %hba_private = getelementptr inbounds %struct.SCSIRequest, ptr %0, i32 0, i32 8
  %1 = load ptr, ptr %hba_private, align 8
  store ptr %1, ptr %req, align 8
  %2 = load ptr, ptr %scsi_req.addr, align 8
  %status1 = getelementptr inbounds %struct.SCSIRequest, ptr %2, i32 0, i32 6
  %3 = load i16, ptr %status1, align 4
  store i16 %3, ptr %status, align 2
  %4 = load ptr, ptr %scsi_req.addr, align 8
  %cmd = getelementptr inbounds %struct.SCSIRequest, ptr %4, i32 0, i32 10
  %xfer = getelementptr inbounds %struct.SCSICommand, ptr %cmd, i32 0, i32 2
  %5 = load i64, ptr %xfer, align 8
  %6 = load i64, ptr %resid.addr, align 8
  %sub = sub i64 %5, %6
  %conv = trunc i64 %sub to i32
  store i32 %conv, ptr %transfered_len, align 4
  %7 = load ptr, ptr %req, align 8
  %8 = load ptr, ptr %scsi_req.addr, align 8
  %sense = getelementptr inbounds %struct.SCSIRequest, ptr %8, i32 0, i32 12
  %arraydecay = getelementptr inbounds [252 x i8], ptr %sense, i64 0, i64 0
  %9 = load ptr, ptr %scsi_req.addr, align 8
  %sense_len = getelementptr inbounds %struct.SCSIRequest, ptr %9, i32 0, i32 13
  %10 = load i32, ptr %sense_len, align 4
  %11 = load i32, ptr %transfered_len, align 4
  %12 = load i16, ptr %status, align 2
  call void @ufs_build_scsi_response_upiu(ptr noundef %7, ptr noundef %arraydecay, i32 noundef %10, i32 noundef %11, i16 noundef signext %12)
  %13 = load ptr, ptr %req, align 8
  call void @ufs_complete_req(ptr noundef %13, i32 noundef 0)
  %14 = load ptr, ptr %scsi_req.addr, align 8
  %hba_private2 = getelementptr inbounds %struct.SCSIRequest, ptr %14, i32 0, i32 8
  store ptr null, ptr %hba_private2, align 8
  %15 = load ptr, ptr %scsi_req.addr, align 8
  call void @scsi_req_unref(ptr noundef %15)
  ret void
}