; Function Attrs: nounwind sspstrong uwtable
define internal void @ufs_scsi_command_complete(ptr noundef %scsi_req, i64 noundef %resid) #1 {
entry:
  %hba_private = getelementptr inbounds nuw i8, ptr %scsi_req, i64 40
  %0 = load ptr, ptr %hba_private, align 8
  %status1 = getelementptr inbounds nuw i8, ptr %scsi_req, i64 36
  %1 = load i16, ptr %status1, align 4
  %xfer = getelementptr inbounds nuw i8, ptr %scsi_req, i64 80
  %2 = load i64, ptr %xfer, align 8
  %sub = sub i64 %2, %resid
  %conv = trunc i64 %sub to i32
  %sense = getelementptr inbounds nuw i8, ptr %scsi_req, i64 112
  %sense_len = getelementptr inbounds nuw i8, ptr %scsi_req, i64 364
  %3 = load i32, ptr %sense_len, align 4
  %4 = getelementptr inbounds nuw i8, ptr %0, i64 60
  %5 = load i32, ptr %4, align 4
  %6 = tail call noundef i32 @llvm.bswap.i32(i32 %5)
  %cmp.i = icmp ugt i32 %6, %conv
  br i1 %cmp.i, label %if.then.i, label %if.else.i

if.then.i:                                        ; preds = %entry
  %sub.i = sub nuw i32 %6, %conv
  br label %if.end13.sink.split.i

if.else.i:                                        ; preds = %entry
  %cmp3.i = icmp ult i32 %6, %conv
  br i1 %cmp3.i, label %if.then5.i, label %if.end13.i

if.then5.i:                                       ; preds = %if.else.i
  %sub6.i = sub nuw i32 %conv, %6
  br label %if.end13.sink.split.i

if.end13.sink.split.i:                            ; preds = %if.then5.i, %if.then.i
  %sub6.sink.i = phi i32 [ %sub6.i, %if.then5.i ], [ %sub.i, %if.then.i ]
  %flags.0.ph.i = phi i8 [ 64, %if.then5.i ], [ 32, %if.then.i ]
  %7 = tail call noundef i32 @llvm.bswap.i32(i32 %sub6.sink.i)
  %8 = getelementptr inbounds nuw i8, ptr %0, i64 348
  store i32 %7, ptr %8, align 4
  br label %if.end13.i

if.end13.i:                                       ; preds = %if.end13.sink.split.i, %if.else.i
  %flags.0.i = phi i8 [ 0, %if.else.i ], [ %flags.0.ph.i, %if.end13.sink.split.i ]
  %cmp15.not.i = icmp eq i16 %1, 0
  %.pre.i = trunc i32 %3 to i16
  br i1 %cmp15.not.i, label %ufs_build_scsi_response_upiu.exit, label %if.then17.i

if.then17.i:                                      ; preds = %if.end13.i
  %9 = tail call noundef i16 @llvm.bswap.i16(i16 %.pre.i)
  %sense_data_len.i.i = getelementptr inbounds nuw i8, ptr %0, i64 368
  store i16 %9, ptr %sense_data_len.i.i, align 4
  %cmp.i.i = icmp ult i32 %3, 19
  br i1 %cmp.i.i, label %ufs_build_upiu_sense_data.exit.i, label %if.else.i.i

if.else.i.i:                                      ; preds = %if.then17.i
  tail call void @__assert_fail(ptr noundef nonnull @.str.4, ptr noundef nonnull @.str.3, i32 noundef 28, ptr noundef nonnull @__PRETTY_FUNCTION__.ufs_build_upiu_sense_data) #10
  unreachable

ufs_build_upiu_sense_data.exit.i:                 ; preds = %if.then17.i
  %sense_data.i.i = getelementptr inbounds nuw i8, ptr %0, i64 370
  %conv3.i.i = zext nneg i32 %3 to i64
  tail call void @llvm.memcpy.p0.p0.i64(ptr nonnull align 2 %sense_data.i.i, ptr nonnull readonly align 1 %sense, i64 %conv3.i.i, i1 false)
  br label %ufs_build_scsi_response_upiu.exit

ufs_build_scsi_response_upiu.exit:                ; preds = %if.end13.i, %ufs_build_upiu_sense_data.exit.i
  %response.0.i = phi i8 [ 1, %ufs_build_upiu_sense_data.exit.i ], [ 0, %if.end13.i ]
  %add.i = add i16 %.pre.i, 2
  %10 = tail call noundef i16 @llvm.bswap.i16(i16 %add.i)
  %conv22.i = trunc i16 %1 to i8
  tail call void @ufs_build_upiu_header(ptr noundef nonnull %0, i8 noundef zeroext 33, i8 noundef zeroext %flags.0.i, i8 noundef zeroext %response.0.i, i8 noundef zeroext %conv22.i, i16 noundef zeroext %10) #9
  tail call void @ufs_complete_req(ptr noundef nonnull %0, i32 noundef 0) #9
  store ptr null, ptr %hba_private, align 8
  tail call void @scsi_req_unref(ptr noundef nonnull %scsi_req) #9
  ret void
}